target datalayout = "e-m:e-p270:32:32-p271:32:32-p272:64:64-i64:64-i128:128-f80:128-n8:16:32:64-S128"
target triple = "x86_64-pc-linux-gnu"

%struct.Abc_Ntk_t_ = type { i32, i32, ptr, ptr, ptr, ptr, ptr, ptr, ptr, ptr, ptr, ptr, ptr, [11 x i32], i32, i32, i32, i32, ptr, i32, ptr, ptr, i32, i32, i32, double, i32, %struct.Vec_Int_t_, ptr, ptr, ptr, ptr, ptr, float, i32, ptr, ptr, ptr, ptr, ptr, ptr, ptr, ptr, ptr, ptr, ptr, ptr, ptr, ptr, ptr, ptr, ptr, ptr, ptr, ptr, ptr, ptr }
%struct.Vec_Int_t_ = type { i32, i32, ptr }
%struct.Vec_Ptr_t_ = type { i32, i32, ptr }
%struct.Abc_Obj_t_ = type { ptr, ptr, i32, i32, %struct.Vec_Int_t_, %struct.Vec_Int_t_, %union.anon, %union.anon.0 }
%union.anon = type { ptr }
%union.anon.0 = type { ptr }

; Function Attrs: inlinehint nounwind uwtable
define internal ptr @Vec_PtrEntry(ptr noundef %0, i32 noundef %1) #6 {
  %3 = alloca ptr, align 8
  %4 = alloca i32, align 4
  store ptr %0, ptr %3, align 8, !tbaa !74
  store i32 %1, ptr %4, align 4, !tbaa !10
  %5 = load ptr, ptr %3, align 8, !tbaa !74
  %6 = getelementptr inbounds nuw %struct.Vec_Ptr_t_, ptr %5, i32 0, i32 2
  %7 = load ptr, ptr %6, align 8, !tbaa !79
  %8 = load i32, ptr %4, align 4, !tbaa !10
  %9 = sext i32 %8 to i64
  %10 = getelementptr inbounds ptr, ptr %7, i64 %9
  %11 = load ptr, ptr %10, align 8, !tbaa !77
  ret ptr %11
}

; Function Attrs: inlinehint nounwind uwtable
define internal i32 @Vec_PtrSize(ptr noundef %0) #6 {
  %2 = alloca ptr, align 8
  store ptr %0, ptr %2, align 8, !tbaa !74
  %3 = load ptr, ptr %2, align 8, !tbaa !74
  %4 = getelementptr inbounds nuw %struct.Vec_Ptr_t_, ptr %3, i32 0, i32 1
  %5 = load i32, ptr %4, align 4, !tbaa !75
  ret i32 %5
}

; Function Attrs: nounwind uwtable
define i32 @Ver_ParseMaxBoxSize(ptr noundef %0) #0 {
  %2 = alloca ptr, align 8
  %3 = alloca ptr, align 8
  %4 = alloca ptr, align 8
  %5 = alloca i32, align 4
  %6 = alloca i32, align 4
  %7 = alloca i32, align 4
  store ptr %0, ptr %2, align 8, !tbaa !74
  call void @llvm.lifetime.start.p0(i64 8, ptr %3) #10
  call void @llvm.lifetime.start.p0(i64 8, ptr %4) #10
  call void @llvm.lifetime.start.p0(i64 4, ptr %5) #10
  call void @llvm.lifetime.start.p0(i64 4, ptr %6) #10
  call void @llvm.lifetime.start.p0(i64 4, ptr %7) #10
  store i32 0, ptr %7, align 4, !tbaa !10
  store i32 0, ptr %5, align 4, !tbaa !10
  br label %8

8:                                                ; preds = %52, %1
  %9 = load i32, ptr %5, align 4, !tbaa !10
  %10 = load ptr, ptr %2, align 8, !tbaa !74
  %11 = call i32 @Vec_PtrSize(ptr noundef %10)
  %12 = icmp slt i32 %9, %11
  br i1 %12, label %13, label %17

13:                                               ; preds = %8
  %14 = load ptr, ptr %2, align 8, !tbaa !74
  %15 = load i32, ptr %5, align 4, !tbaa !10
  %16 = call ptr @Vec_PtrEntry(ptr noundef %14, i32 noundef %15)
  store ptr %16, ptr %3, align 8, !tbaa !39
  br label %17

17:                                               ; preds = %13, %8
  %18 = phi i1 [ false, %8 ], [ true, %13 ]
  br i1 %18, label %19, label %55

19:                                               ; preds = %17
  store i32 0, ptr %6, align 4, !tbaa !10
  br label %20

20:                                               ; preds = %48, %19
  %21 = load i32, ptr %6, align 4, !tbaa !10
  %22 = load ptr, ptr %3, align 8, !tbaa !39
  %23 = getelementptr inbounds nuw %struct.Abc_Ntk_t_, ptr %22, i32 0, i32 42
  %24 = load ptr, ptr %23, align 8, !tbaa !116
  %25 = call i32 @Vec_PtrSize(ptr noundef %24)
  %26 = icmp slt i32 %21, %25
  br i1 %26, label %27, label %33

27:                                               ; preds = %20
  %28 = load ptr, ptr %3, align 8, !tbaa !39
  %29 = getelementptr inbounds nuw %struct.Abc_Ntk_t_, ptr %28, i32 0, i32 42
  %30 = load ptr, ptr %29, align 8, !tbaa !116
  %31 = load i32, ptr %6, align 4, !tbaa !10
  %32 = call ptr @Vec_PtrEntry(ptr noundef %30, i32 noundef %31)
  store ptr %32, ptr %4, align 8, !tbaa !58
  br label %33

33:                                               ; preds = %27, %20
  %34 = phi i1 [ false, %20 ], [ true, %27 ]
  br i1 %34, label %35, label %51

35:                                               ; preds = %33
  %36 = load i32, ptr %7, align 4, !tbaa !10
  %37 = load ptr, ptr %4, align 8, !tbaa !58
  %38 = getelementptr inbounds nuw %struct.Abc_Obj_t_, ptr %37, i32 0, i32 7
  %39 = load ptr, ptr %38, align 8, !tbaa !66
  %40 = call i32 @Vec_PtrSize(ptr noundef %39)
  %41 = icmp slt i32 %36, %40
  br i1 %41, label %42, label %47

42:                                               ; preds = %35
  %43 = load ptr, ptr %4, align 8, !tbaa !58
  %44 = getelementptr inbounds nuw %struct.Abc_Obj_t_, ptr %43, i32 0, i32 7
  %45 = load ptr, ptr %44, align 8, !tbaa !66
  %46 = call i32 @Vec_PtrSize(ptr noundef %45)
  store i32 %46, ptr %7, align 4, !tbaa !10
  br label %47

47:                                               ; preds = %42, %35
  br label %48

48:                                               ; preds = %47
  %49 = load i32, ptr %6, align 4, !tbaa !10
  %50 = add nsw i32 %49, 1
  store i32 %50, ptr %6, align 4, !tbaa !10
  br label %20, !llvm.loop !149

51:                                               ; preds = %33
  br label %52

52:                                               ; preds = %51
  %53 = load i32, ptr %5, align 4, !tbaa !10
  %54 = add nsw i32 %53, 1
  store i32 %54, ptr %5, align 4, !tbaa !10
  br label %8, !llvm.loop !150

55:                                               ; preds = %17
  %56 = load i32, ptr %7, align 4, !tbaa !10
  call void @llvm.lifetime.end.p0(i64 4, ptr %7) #10
  call void @llvm.lifetime.end.p0(i64 4, ptr %6) #10
  call void @llvm.lifetime.end.p0(i64 4, ptr %5) #10
  call void @llvm.lifetime.end.p0(i64 8, ptr %4) #10
  call void @llvm.lifetime.end.p0(i64 8, ptr %3) #10
  ret i32 %56
}