; Function Attrs: nofree norecurse nosync nounwind memory(read, inaccessiblemem: none) uwtable
define range(i32 0, -2147483648) i32 @Ver_ParseMaxBoxSize(ptr noundef readonly captures(none) %0) local_unnamed_addr #10 {
  %2 = getelementptr i8, ptr %0, i64 4
  %.val19 = load i32, ptr %2, align 4, !tbaa !20
  %3 = icmp sgt i32 %.val19, 0
  br i1 %3, label %.lr.ph26, label %.critedge

.lr.ph26:                                         ; preds = %1
  %4 = getelementptr i8, ptr %0, i64 8
  %.val21 = load ptr, ptr %4, align 8, !tbaa !23
  %wide.trip.count32 = zext nneg i32 %.val19 to i64
  br label %5

5:                                                ; preds = %.lr.ph26, %.critedge2
  %indvars.iv29 = phi i64 [ 0, %.lr.ph26 ], [ %indvars.iv.next30, %.critedge2 ]
  %.025 = phi i32 [ 0, %.lr.ph26 ], [ %.1.lcssa, %.critedge2 ]
  %6 = getelementptr inbounds nuw ptr, ptr %.val21, i64 %indvars.iv29
  %7 = load ptr, ptr %6, align 8, !tbaa !63
  %8 = getelementptr inbounds nuw i8, ptr %7, i64 344
  %9 = load ptr, ptr %8, align 8, !tbaa !72
  %10 = getelementptr i8, ptr %9, i64 4
  %.val18 = load i32, ptr %10, align 4, !tbaa !20
  %11 = icmp sgt i32 %.val18, 0
  br i1 %11, label %.lr.ph, label %.critedge2

.lr.ph:                                           ; preds = %5
  %12 = getelementptr i8, ptr %9, i64 8
  %.val20 = load ptr, ptr %12, align 8, !tbaa !23
  %wide.trip.count = zext nneg i32 %.val18 to i64
  br label %13

13:                                               ; preds = %.lr.ph, %13
  %indvars.iv = phi i64 [ 0, %.lr.ph ], [ %indvars.iv.next, %13 ]
  %.123 = phi i32 [ %.025, %.lr.ph ], [ %spec.select, %13 ]
  %14 = getelementptr inbounds nuw ptr, ptr %.val20, i64 %indvars.iv
  %15 = load ptr, ptr %14, align 8, !tbaa !63
  %16 = getelementptr inbounds nuw i8, ptr %15, i64 64
  %17 = load ptr, ptr %16, align 8, !tbaa !73
  %18 = getelementptr i8, ptr %17, i64 4
  %.val17 = load i32, ptr %18, align 4, !tbaa !20
  %spec.select = tail call i32 @llvm.smax.i32(i32 %.123, i32 %.val17)
  %indvars.iv.next = add nuw nsw i64 %indvars.iv, 1
  %exitcond.not = icmp eq i64 %indvars.iv.next, %wide.trip.count
  br i1 %exitcond.not, label %.critedge2, label %13, !llvm.loop !74

.critedge2:                                       ; preds = %13, %5
  %.1.lcssa = phi i32 [ %.025, %5 ], [ %spec.select, %13 ]
  %indvars.iv.next30 = add nuw nsw i64 %indvars.iv29, 1
  %exitcond33.not = icmp eq i64 %indvars.iv.next30, %wide.trip.count32
  br i1 %exitcond33.not, label %.critedge, label %5, !llvm.loop !75

.critedge:                                        ; preds = %.critedge2, %1
  %.0.lcssa = phi i32 [ 0, %1 ], [ %.1.lcssa, %.critedge2 ]
  ret i32 %.0.lcssa
}